; Function Attrs: mustprogress uwtable
define hidden void @_ZN2pb4card11clear_watchERNS_16solver_interfaceE(ptr noundef nonnull align 8 dereferenceable(64) %0, ptr noundef nonnull align 8 dereferenceable(8) %1) unnamed_addr #8 align 2 {
  %3 = getelementptr inbounds nuw i8, ptr %0, i64 20
  %4 = load i32, ptr %3, align 4, !tbaa !30
  %5 = icmp eq i32 %4, -2
  %6 = getelementptr inbounds nuw i8, ptr %0, i64 16
  %7 = load i32, ptr %6, align 8
  %8 = icmp ne i32 %7, -2
  %9 = select i1 %5, i1 %8, i1 false
  br i1 %9, label %.loopexit, label %10

10:                                               ; preds = %2
  store i32 -2, ptr %3, align 4, !tbaa !9
  %11 = getelementptr inbounds nuw i8, ptr %0, i64 60
  %12 = load i32, ptr %11, align 4, !tbaa !25
  %13 = add i32 %12, 1
  %14 = getelementptr inbounds nuw i8, ptr %0, i64 32
  %15 = load i32, ptr %14, align 8, !tbaa !20
  %.sroa.speculated = tail call i32 @llvm.umin.i32(i32 %15, i32 %13)
  %.not = icmp eq i32 %.sroa.speculated, 0
  br i1 %.not, label %.loopexit, label %.lr.ph

.lr.ph:                                           ; preds = %10
  %16 = getelementptr inbounds nuw i8, ptr %0, i64 64
  %wide.trip.count = zext i32 %.sroa.speculated to i64
  br label %17

17:                                               ; preds = %.lr.ph, %17
  %indvars.iv = phi i64 [ 0, %.lr.ph ], [ %indvars.iv.next, %17 ]
  %18 = getelementptr inbounds nuw [0 x %"class.sat::literal"], ptr %16, i64 0, i64 %indvars.iv
  %.sroa.0.0.copyload = load i32, ptr %18, align 4, !tbaa !9
  tail call void @_ZN2pb10constraint15unwatch_literalERNS_16solver_interfaceEN3sat7literalE(ptr noundef nonnull align 8 dereferenceable(64) %0, ptr noundef nonnull align 8 dereferenceable(8) %1, i32 %.sroa.0.0.copyload)
  %indvars.iv.next = add nuw nsw i64 %indvars.iv, 1
  %exitcond.not = icmp eq i64 %indvars.iv.next, %wide.trip.count
  br i1 %exitcond.not, label %.loopexit, label %17, !llvm.loop !49

.loopexit:                                        ; preds = %17, %10, %2
  ret void
}